; Function Attrs: mustprogress nofree norecurse nosync nounwind willreturn memory(readwrite, inaccessiblemem: none) uwtable
define range(i32 -2, 1) i32 @inflateResetKeep(ptr noundef %0) local_unnamed_addr #0 {
  %2 = icmp eq ptr %0, null
  br i1 %2, label %30, label %3

3:                                                ; preds = %1
  %4 = getelementptr inbounds nuw i8, ptr %0, i64 56
  %5 = load ptr, ptr %4, align 8, !tbaa !3
  %6 = icmp eq ptr %5, null
  br i1 %6, label %30, label %7

7:                                                ; preds = %3
  %8 = getelementptr inbounds nuw i8, ptr %5, i64 32
  store i64 0, ptr %8, align 8, !tbaa !12
  %9 = getelementptr inbounds nuw i8, ptr %0, i64 40
  %10 = getelementptr inbounds nuw i8, ptr %0, i64 16
  store i64 0, ptr %10, align 8, !tbaa !15
  %11 = getelementptr inbounds nuw i8, ptr %5, i64 8
  tail call void @llvm.memset.p0.i64(ptr noundef nonnull align 8 dereferenceable(16) %9, i8 0, i64 16, i1 false)
  %12 = load i32, ptr %11, align 8, !tbaa !16
  %.not = icmp eq i32 %12, 0
  br i1 %.not, label %17, label %13

13:                                               ; preds = %7
  %14 = and i32 %12, 1
  %15 = zext nneg i32 %14 to i64
  %16 = getelementptr inbounds nuw i8, ptr %0, i64 96
  store i64 %15, ptr %16, align 8, !tbaa !17
  br label %17

17:                                               ; preds = %13, %7
  store i32 0, ptr %5, align 8, !tbaa !18
  %18 = getelementptr inbounds nuw i8, ptr %5, i64 4
  store i32 0, ptr %18, align 4, !tbaa !19
  %19 = getelementptr inbounds nuw i8, ptr %5, i64 12
  store i32 0, ptr %19, align 4, !tbaa !20
  %20 = getelementptr inbounds nuw i8, ptr %5, i64 20
  store i32 32768, ptr %20, align 4, !tbaa !21
  %21 = getelementptr inbounds nuw i8, ptr %5, i64 40
  store ptr null, ptr %21, align 8, !tbaa !22
  %22 = getelementptr inbounds nuw i8, ptr %5, i64 72
  store i64 0, ptr %22, align 8, !tbaa !23
  %23 = getelementptr inbounds nuw i8, ptr %5, i64 80
  store i32 0, ptr %23, align 8, !tbaa !24
  %24 = getelementptr inbounds nuw i8, ptr %5, i64 1360
  %25 = getelementptr inbounds nuw i8, ptr %5, i64 136
  store ptr %24, ptr %25, align 8, !tbaa !25
  %26 = getelementptr inbounds nuw i8, ptr %5, i64 104
  store ptr %24, ptr %26, align 8, !tbaa !26
  %27 = getelementptr inbounds nuw i8, ptr %5, i64 96
  store ptr %24, ptr %27, align 8, !tbaa !27
  %28 = getelementptr inbounds nuw i8, ptr %5, i64 7136
  store i32 1, ptr %28, align 8, !tbaa !28
  %29 = getelementptr inbounds nuw i8, ptr %5, i64 7140
  store i32 -1, ptr %29, align 4, !tbaa !29
  br label %30

30:                                               ; preds = %1, %3, %17
  %.0 = phi i32 [ 0, %17 ], [ -2, %3 ], [ -2, %1 ]
  ret i32 %.0
}